Certificate:
    Data:
        Version: 3 (0x2)
        Serial Number: 4099 (0x1003)
        Signature Algorithm: sha256WithRSAEncryption
        Issuer: C=TN, ST=Ben-Arous, L=Ezzahra, O=Org, OU=Unit, CN=Common/emailAddress=fatma-chaouech@live.fr
        Validity
            Not Before: Dec 26 18:35:22 2022 GMT
            Not After : Dec 26 18:35:22 2023 GMT
        Subject: C=TN, ST=Ben-Arous, O=Org, OU=Unit, CN=Common/emailAddress=chaouechfatma2@gmail.com
        Subject Public Key Info:
            Public Key Algorithm: rsaEncryption
                Public-Key: (2048 bit)
                Modulus:
                    00:de:1e:26:24:34:73:f1:cf:c3:4a:32:ba:36:f0:
                    f4:83:a5:c1:aa:bf:11:1c:5b:da:76:26:a3:4e:e0:
                    91:4f:51:c3:d0:bb:68:f4:de:34:b7:23:31:dd:ea:
                    57:ef:9a:8f:aa:88:a7:29:f1:e0:07:bd:dd:5d:89:
                    18:d0:a1:c3:83:a4:5f:99:a6:55:27:48:f5:81:61:
                    58:2b:2a:eb:84:dd:9e:c3:fe:4d:58:c0:50:47:d5:
                    03:dd:b8:33:73:f3:8d:a4:42:35:67:72:04:21:b4:
                    70:74:fd:b1:54:bb:3a:17:4d:af:1e:6a:df:8e:76:
                    fe:c3:67:51:fc:96:c8:1d:a9:21:ec:ad:a5:31:3a:
                    03:40:9d:4c:f6:8f:01:39:6e:52:c7:38:72:28:9b:
                    9e:06:cc:67:c8:9c:ce:49:6e:de:f0:dc:93:2d:3d:
                    f8:39:17:dc:e5:11:90:ed:27:41:98:07:a5:08:7c:
                    11:8c:67:68:60:82:d7:0c:f0:fc:db:ca:4e:8c:96:
                    bd:d7:49:4f:96:0f:0e:4b:3f:b6:e8:72:bb:c3:5f:
                    b2:13:8e:f8:2d:21:bb:08:86:73:e2:01:79:1a:d9:
                    e5:5d:2a:7a:db:ee:27:11:cb:68:fa:e5:74:c6:26:
                    41:48:5c:b5:a9:66:70:c5:a4:8b:8a:04:ca:36:8d:
                    05:15
                Exponent: 65537 (0x10001)
        X509v3 extensions:
            X509v3 Basic Constraints: 
                CA:FALSE
            X509v3 Subject Key Identifier: 
                38:0C:03:2B:F3:D7:95:E4:D6:F0:7A:51:8A:5D:68:B4:17:F1:60:F8
            X509v3 Authority Key Identifier: 
                52:A8:93:F4:2D:BE:C3:E9:02:4A:70:C9:D4:E7:EA:D5:A5:70:00:9A
    Signature Algorithm: sha256WithRSAEncryption
    Signature Value:
        55:cb:cc:79:e6:38:1b:a3:41:4d:e2:85:70:10:d5:2b:dc:8f:
        32:1a:09:99:21:62:80:8a:b2:08:99:4c:67:43:63:e4:79:49:
        ec:e9:13:32:bf:6e:e0:d9:3f:f2:1c:3a:d1:e7:5e:cb:08:3b:
        54:95:2d:5d:c6:a5:99:2e:bc:85:2f:e7:d8:c8:5a:31:1c:96:
        02:22:4e:d9:a1:20:92:17:6f:d1:0d:54:ed:5e:9e:9c:ec:c8:
        e6:35:96:f9:6a:9b:df:79:43:88:f9:18:e9:d0:a2:29:2a:32:
        d5:9b:e8:fb:7d:40:e9:8d:96:9c:bf:9d:1c:59:9d:32:1d:3d:
        3b:86:9f:90:e7:a5:5f:1a:6c:45:ea:6d:1d:c3:76:fc:2b:62:
        da:e8:22:57:eb:ab:43:d4:9a:e8:4d:d6:2f:63:60:bb:64:b1:
        d2:bd:e6:68:a6:04:ad:99:80:cb:1d:8d:71:47:0a:fe:19:2c:
        70:7a:48:80:9b:b4:84:ba:cc:9d:ef:b0:64:74:e9:80:54:97:
        a5:0e:6c:28:45:fb:e6:11:b6:17:93:62:0b:2f:8e:90:ad:58:
        bf:fb:49:7b:7c:65:6d:ab:49:f3:2a:5a:37:12:a8:de:85:03:
        c4:2a:6f:01:2d:cc:15:2a:51:1b:4a:63:45:0e:61:01:5e:9c:
        6a:87:f0:66
-----BEGIN CERTIFICATE-----
MIIDyjCCArKgAwIBAgICEAMwDQYJKoZIhvcNAQELBQAwgYgxCzAJBgNVBAYTAlRO
MRIwEAYDVQQIDAlCZW4tQXJvdXMxEDAOBgNVBAcMB0V6emFocmExDDAKBgNVBAoM
A09yZzENMAsGA1UECwwEVW5pdDEPMA0GA1UEAwwGQ29tbW9uMSUwIwYJKoZIhvcN
AQkBFhZmYXRtYS1jaGFvdWVjaEBsaXZlLmZyMB4XDTIyMTIyNjE4MzUyMloXDTIz
MTIyNjE4MzUyMloweDELMAkGA1UEBhMCVE4xEjAQBgNVBAgMCUJlbi1Bcm91czEM
MAoGA1UECgwDT3JnMQ0wCwYDVQQLDARVbml0MQ8wDQYDVQQDDAZDb21tb24xJzAl
BgkqhkiG9w0BCQEWGGNoYW91ZWNoZmF0bWEyQGdtYWlsLmNvbTCCASIwDQYJKoZI
hvcNAQEBBQADggEPADCCAQoCggEBAN4eJiQ0c/HPw0oyujbw9IOlwaq/ERxb2nYm
o07gkU9Rw9C7aPTeNLcjMd3qV++aj6qIpynx4Ae93V2JGNChw4OkX5mmVSdI9YFh
WCsq64TdnsP+TVjAUEfVA924M3PzjaRCNWdyBCG0cHT9sVS7OhdNrx5q3452/sNn
UfyWyB2pIeytpTE6A0CdTPaPATluUsc4ciibngbMZ8iczklu3vDcky09+DkX3OUR
kO0nQZgHpQh8EYxnaGCC1wzw/NvKToyWvddJT5YPDks/tuhyu8NfshOO+C0huwiG
c+IBeRrZ5V0qetvuJxHLaPrldMYmQUhctalmcMWki4oEyjaNBRUCAwEAAaNNMEsw
CQYDVR0TBAIwADAdBgNVHQ4EFgQUOAwDK/PXleTW8HpRil1otBfxYPgwHwYDVR0j
BBgwFoAUUqiT9C2+w+kCSnDJ1Ofq1aVwAJowDQYJKoZIhvcNAQELBQADggEBAFXL
zHnmOBujQU3ihXAQ1SvcjzIaCZkhYoCKsgiZTGdDY+R5SezpEzK/buDZP/IcOtHn
XssIO1SVLV3GpZkuvIUv59jIWjEclgIiTtmhIJIXb9ENVO1enpzsyOY1lvlqm995
Q4j5GOnQoikqMtWb6Pt9QOmNlpy/nRxZnTIdPTuGn5DnpV8abEXqbR3DdvwrYtro
Ilfrq0PUmuhN1i9jYLtksdK95mimBK2ZgMsdjXFHCv4ZLHB6SICbtIS6zJ3vsGR0
6YBUl6UObChF++YRtheTYgsvjpCtWL/7SXt8ZW2rSfMqWjcSqN6FA8QqbwEtzBUq
URtKY0UOYQFenGqH8GY=
-----END CERTIFICATE-----
