Certificate:
    Data:
        Version: 3 (0x2)
        Serial Number: 4096 (0x1000)
        Signature Algorithm: sha256WithRSAEncryption
        Issuer: C=TN, ST=Ben-Arous, L=Ezzahra, O=Security, OU=SecurIT, CN=FatmAni/emailAddress=fatma-chaouech@live.fr
        Validity
            Not Before: Dec 19 18:22:55 2022 GMT
            Not After : Dec 19 18:22:55 2023 GMT
        Subject: C=TN, ST=Ben-Arous, O=Security, OU=Security, CN=FatmAni/emailAddress=fatma-chaouech@live.fr
        Subject Public Key Info:
            Public Key Algorithm: rsaEncryption
                Public-Key: (2048 bit)
                Modulus:
                    00:a7:80:c0:f4:9d:8d:f3:c2:91:9f:69:6a:15:1b:
                    1a:38:4d:cd:99:d5:d3:e6:af:c5:19:ea:41:01:75:
                    63:59:1e:bf:e1:a3:34:97:61:49:fe:59:a7:2f:0c:
                    02:84:02:59:7b:b3:66:19:f1:a3:6c:53:34:37:bd:
                    ad:b9:f2:50:42:13:80:b1:6d:e7:c4:ac:1f:94:3e:
                    91:e1:0d:3d:54:d5:c4:06:cd:75:ad:1f:f1:15:81:
                    ed:c1:21:7e:0a:c5:1d:86:b2:55:21:0d:65:1d:4f:
                    95:da:6e:f4:4a:bd:a4:6a:bd:fc:dd:c4:9b:58:16:
                    03:98:3d:f6:ca:ca:78:18:d7:31:9f:79:06:92:8e:
                    78:b0:7a:f9:67:ce:97:f9:5a:ed:48:b4:a0:10:9c:
                    5a:3c:b9:b1:35:a6:88:74:3b:0b:3e:7f:58:51:ae:
                    11:fd:04:9b:43:d7:c2:1e:03:2d:be:b8:58:8e:23:
                    74:0a:02:7e:10:37:30:bf:93:5e:be:e8:2b:a0:58:
                    05:7d:70:1b:29:f5:ee:2b:e0:64:b2:9e:29:0d:b9:
                    19:61:35:3f:0c:0f:d5:a1:00:1e:56:be:dd:59:a2:
                    f8:99:1f:ff:ed:de:fd:36:d3:f2:12:89:d9:71:0f:
                    2d:60:96:2f:1e:a0:ee:32:3a:4a:08:0e:c6:ff:14:
                    8f:fb
                Exponent: 65537 (0x10001)
        X509v3 extensions:
            X509v3 Basic Constraints: 
                CA:FALSE
            X509v3 Subject Key Identifier: 
                3C:23:94:86:9E:9D:00:39:3D:37:F6:68:8D:AA:51:61:63:4A:80:73
            X509v3 Authority Key Identifier: 
                3C:23:94:86:9E:9D:00:39:3D:37:F6:68:8D:AA:51:61:63:4A:80:73
    Signature Algorithm: sha256WithRSAEncryption
    Signature Value:
        5c:3b:ae:b5:ca:52:54:1b:7d:84:ce:9d:19:3a:4d:14:61:2d:
        b4:e3:5c:31:55:bc:c7:fd:f1:cd:d4:04:f4:83:8c:cc:23:87:
        bf:7e:9b:b8:1b:db:22:67:5a:a2:7f:ff:da:b9:b6:a5:e6:4e:
        77:a5:29:aa:5c:82:6c:d8:12:5e:e8:40:c7:48:43:43:d8:98:
        76:c3:c8:8a:a0:1e:58:15:88:57:81:a6:ca:79:1b:e1:01:47:
        93:f0:12:ab:5c:07:69:dc:d5:45:7b:90:63:f8:ca:31:6b:6e:
        9e:31:e4:19:22:9c:0f:94:01:89:6d:2c:e2:db:d9:5d:62:82:
        6e:25:56:69:ec:0a:9a:c7:77:dd:ed:4a:4c:f6:cb:4d:23:ed:
        4e:7a:b8:f8:b8:38:25:c6:e6:d1:51:2e:b3:43:3f:a7:cb:95:
        7f:5c:bb:05:32:41:d6:e6:bd:16:9a:87:5f:07:8a:72:a7:71:
        1c:b3:0b:e3:7b:b4:d0:3d:98:4f:78:2d:00:c9:d1:6d:cf:a0:
        ac:5e:b5:20:5b:1d:cc:17:50:ba:a8:b5:cd:d1:bf:cc:c6:19:
        cb:2a:f6:48:51:55:16:4b:f9:41:55:48:e9:68:c3:53:b7:22:
        69:8f:2f:a4:24:51:02:8c:6e:fe:50:31:70:b2:13:55:ca:11:
        1a:7b:fa:1a
-----BEGIN CERTIFICATE-----
MIID3DCCAsSgAwIBAgICEAAwDQYJKoZIhvcNAQELBQAwgZExCzAJBgNVBAYTAlRO
MRIwEAYDVQQIDAlCZW4tQXJvdXMxEDAOBgNVBAcMB0V6emFocmExETAPBgNVBAoM
CFNlY3VyaXR5MRAwDgYDVQQLDAdTZWN1cklUMRAwDgYDVQQDDAdGYXRtQW5pMSUw
IwYJKoZIhvcNAQkBFhZmYXRtYS1jaGFvdWVjaEBsaXZlLmZyMB4XDTIyMTIxOTE4
MjI1NVoXDTIzMTIxOTE4MjI1NVowgYAxCzAJBgNVBAYTAlROMRIwEAYDVQQIDAlC
ZW4tQXJvdXMxETAPBgNVBAoMCFNlY3VyaXR5MREwDwYDVQQLDAhTZWN1cml0eTEQ
MA4GA1UEAwwHRmF0bUFuaTElMCMGCSqGSIb3DQEJARYWZmF0bWEtY2hhb3VlY2hA
bGl2ZS5mcjCCASIwDQYJKoZIhvcNAQEBBQADggEPADCCAQoCggEBAKeAwPSdjfPC
kZ9pahUbGjhNzZnV0+avxRnqQQF1Y1kev+GjNJdhSf5Zpy8MAoQCWXuzZhnxo2xT
NDe9rbnyUEITgLFt58SsH5Q+keENPVTVxAbNda0f8RWB7cEhfgrFHYayVSENZR1P
ldpu9Eq9pGq9/N3Em1gWA5g99srKeBjXMZ95BpKOeLB6+WfOl/la7Ui0oBCcWjy5
sTWmiHQ7Cz5/WFGuEf0Em0PXwh4DLb64WI4jdAoCfhA3ML+TXr7oK6BYBX1wGyn1
7ivgZLKeKQ25GWE1PwwP1aEAHla+3Vmi+Jkf/+3e/TbT8hKJ2XEPLWCWLx6g7jI6
SggOxv8Uj/sCAwEAAaNNMEswCQYDVR0TBAIwADAdBgNVHQ4EFgQUPCOUhp6dADk9
N/ZojapRYWNKgHMwHwYDVR0jBBgwFoAUPCOUhp6dADk9N/ZojapRYWNKgHMwDQYJ
KoZIhvcNAQELBQADggEBAFw7rrXKUlQbfYTOnRk6TRRhLbTjXDFVvMf98c3UBPSD
jMwjh79+m7gb2yJnWqJ//9q5tqXmTnelKapcgmzYEl7oQMdIQ0PYmHbDyIqgHlgV
iFeBpsp5G+EBR5PwEqtcB2nc1UV7kGP4yjFrbp4x5BkinA+UAYltLOLb2V1igm4l
VmnsCprHd93tSkz2y00j7U56uPi4OCXG5tFRLrNDP6fLlX9cuwUyQdbmvRaah18H
inKncRyzC+N7tNA9mE94LQDJ0W3PoKxetSBbHcwXULqotc3Rv8zGGcsq9khRVRZL
+UFVSOlow1O3ImmPL6QkUQKMbv5QMXCyE1XKERp7+ho=
-----END CERTIFICATE-----
