Certificate:
    Data:
        Version: 3 (0x2)
        Serial Number: 4097 (0x1001)
        Signature Algorithm: sha256WithRSAEncryption
        Issuer: C=TN, ST=Ben-Arous, L=Ezzahra, O=Security, OU=SecurIT, CN=FatmAni/emailAddress=fatma-chaouech@live.fr
        Validity
            Not Before: Dec 19 18:48:17 2022 GMT
            Not After : Dec 19 18:48:17 2023 GMT
        Subject: C=TN, ST=Ben-Arous, O=Security, OU=UnitSecurity, CN=FatmAni/emailAddress=fatma@gmail.com
        Subject Public Key Info:
            Public Key Algorithm: rsaEncryption
                Public-Key: (2048 bit)
                Modulus:
                    00:d0:ba:5b:9f:71:1e:f8:51:fa:ca:19:a7:b3:bd:
                    eb:fb:4a:b6:37:e2:ca:d6:dc:67:a9:a1:9e:72:27:
                    6f:3b:18:d7:be:c4:5b:73:a2:92:0d:1a:30:a4:57:
                    40:b2:65:7e:bd:d0:3e:2a:3c:0a:78:0f:73:82:bf:
                    38:f2:a0:91:5a:63:75:07:68:fa:95:83:f8:1c:0f:
                    33:ee:84:cd:e3:25:0d:3f:33:18:5c:b9:cc:9d:e7:
                    d8:22:33:6c:e6:22:4c:07:c5:7b:6c:28:52:46:e9:
                    fc:c7:b4:20:a0:53:5c:3a:fb:ed:14:a1:be:a1:ac:
                    d8:df:7d:9d:35:d0:b6:0f:8d:1a:5c:75:83:fe:ce:
                    bd:68:62:e2:38:d0:4f:87:21:91:b8:78:84:cc:64:
                    9a:d6:a3:6e:4f:88:d7:ec:d0:51:5d:bb:74:18:f9:
                    ae:5a:b0:b2:c7:36:8d:7e:ef:5b:1e:b6:94:b1:2b:
                    be:7f:2d:21:fc:ae:b4:22:1a:bf:d4:a1:75:8e:8f:
                    fe:8e:88:bb:b2:06:fa:6f:dc:a3:64:87:58:d3:ed:
                    c2:93:4e:dd:36:a5:cf:ba:a9:c6:da:8d:87:c6:5c:
                    07:70:04:8d:64:00:62:4b:f1:42:ad:70:f2:02:64:
                    af:42:ef:46:9e:e4:01:05:01:d8:9a:b5:86:80:86:
                    5d:6d
                Exponent: 65537 (0x10001)
        X509v3 extensions:
            X509v3 Basic Constraints: 
                CA:FALSE
            X509v3 Subject Key Identifier: 
                50:72:6C:E1:48:F2:8E:AF:96:D8:BD:13:60:89:01:30:D3:67:66:E7
            X509v3 Authority Key Identifier: 
                3C:23:94:86:9E:9D:00:39:3D:37:F6:68:8D:AA:51:61:63:4A:80:73
    Signature Algorithm: sha256WithRSAEncryption
    Signature Value:
        06:c4:ae:42:f5:fe:9a:e8:78:4b:03:0d:53:50:10:d9:db:e7:
        46:5b:46:71:04:73:3d:ce:e7:3c:09:0a:da:51:ca:5c:c3:9c:
        ea:d1:56:6f:da:ea:8b:f5:a3:f3:e5:49:09:5a:5a:ea:d9:44:
        12:6c:6b:52:62:6f:95:df:db:4d:1e:dc:7f:3a:58:ba:bd:ca:
        81:63:47:8e:74:19:45:c2:24:db:5a:9f:3a:69:dc:3c:fc:21:
        21:25:19:4b:68:c6:e8:7e:fa:0a:09:ba:df:4c:1e:cd:31:20:
        46:fe:8c:67:76:da:6b:ce:f0:31:f6:c4:22:bf:c0:d6:93:82:
        fc:42:69:94:20:b8:c9:30:61:ba:02:51:dd:a5:b4:e8:e7:0c:
        8d:25:77:a2:6f:cc:e5:a4:c5:21:df:c5:81:50:4d:45:02:5c:
        14:6f:d8:cf:c3:7b:ff:76:22:06:98:83:67:a2:58:0d:32:52:
        0e:e2:0f:f9:c2:fc:29:3e:9e:4c:e1:41:51:2c:35:30:db:23:
        5b:c5:b7:9d:88:eb:47:6d:7d:66:cf:74:dc:46:36:e2:7d:da:
        e6:d4:e9:1b:4c:62:ad:88:41:6f:86:68:02:47:72:a8:3c:0e:
        6a:d3:48:5b:f0:86:d9:53:f3:8f:9d:4b:16:b0:d5:81:00:86:
        5e:7e:6c:f4
-----BEGIN CERTIFICATE-----
MIID2DCCAsCgAwIBAgICEAEwDQYJKoZIhvcNAQELBQAwgZExCzAJBgNVBAYTAlRO
MRIwEAYDVQQIDAlCZW4tQXJvdXMxEDAOBgNVBAcMB0V6emFocmExETAPBgNVBAoM
CFNlY3VyaXR5MRAwDgYDVQQLDAdTZWN1cklUMRAwDgYDVQQDDAdGYXRtQW5pMSUw
IwYJKoZIhvcNAQkBFhZmYXRtYS1jaGFvdWVjaEBsaXZlLmZyMB4XDTIyMTIxOTE4
NDgxN1oXDTIzMTIxOTE4NDgxN1owfTELMAkGA1UEBhMCVE4xEjAQBgNVBAgMCUJl
bi1Bcm91czERMA8GA1UECgwIU2VjdXJpdHkxFTATBgNVBAsMDFVuaXRTZWN1cml0
eTEQMA4GA1UEAwwHRmF0bUFuaTEeMBwGCSqGSIb3DQEJARYPZmF0bWFAZ21haWwu
Y29tMIIBIjANBgkqhkiG9w0BAQEFAAOCAQ8AMIIBCgKCAQEA0Lpbn3Ee+FH6yhmn
s73r+0q2N+LK1txnqaGecidvOxjXvsRbc6KSDRowpFdAsmV+vdA+KjwKeA9zgr84
8qCRWmN1B2j6lYP4HA8z7oTN4yUNPzMYXLnMnefYIjNs5iJMB8V7bChSRun8x7Qg
oFNcOvvtFKG+oazY332dNdC2D40aXHWD/s69aGLiONBPhyGRuHiEzGSa1qNuT4jX
7NBRXbt0GPmuWrCyxzaNfu9bHraUsSu+fy0h/K60Ihq/1KF1jo/+joi7sgb6b9yj
ZIdY0+3Ck07dNqXPuqnG2o2HxlwHcASNZABiS/FCrXDyAmSvQu9GnuQBBQHYmrWG
gIZdbQIDAQABo00wSzAJBgNVHRMEAjAAMB0GA1UdDgQWBBRQcmzhSPKOr5bYvRNg
iQEw02dm5zAfBgNVHSMEGDAWgBQ8I5SGnp0AOT039miNqlFhY0qAczANBgkqhkiG
9w0BAQsFAAOCAQEABsSuQvX+muh4SwMNU1AQ2dvnRltGcQRzPc7nPAkK2lHKXMOc
6tFWb9rqi/Wj8+VJCVpa6tlEEmxrUmJvld/bTR7cfzpYur3KgWNHjnQZRcIk21qf
OmncPPwhISUZS2jG6H76Cgm630wezTEgRv6MZ3baa87wMfbEIr/A1pOC/EJplCC4
yTBhugJR3aW06OcMjSV3om/M5aTFId/FgVBNRQJcFG/Yz8N7/3YiBpiDZ6JYDTJS
DuIP+cL8KT6eTOFBUSw1MNsjW8W3nYjrR219Zs903EY24n3a5tTpG0xirYhBb4Zo
AkdyqDwOatNIW/CG2VPzj51LFrDVgQCGXn5s9A==
-----END CERTIFICATE-----
