Certificate:
    Data:
        Version: 3 (0x2)
        Serial Number: 4098 (0x1002)
        Signature Algorithm: sha256WithRSAEncryption
        Issuer: C=TN, ST=Ben-Arous, L=Ezzahra, O=Org, OU=Unit, CN=Common/emailAddress=fatma-chaouech@live.fr
        Validity
            Not Before: Dec 20 06:24:51 2022 GMT
            Not After : Dec 20 06:24:51 2023 GMT
        Subject: C=TN, ST=Ben-Arous, O=Org, OU=Unit, CN=Common/emailAddress=fatma-chaouech@live.fr
        Subject Public Key Info:
            Public Key Algorithm: rsaEncryption
                Public-Key: (2048 bit)
                Modulus:
                    00:db:49:b3:03:95:49:7b:90:a2:84:dc:5d:b5:66:
                    29:23:70:69:2b:31:4c:e4:31:58:03:23:d2:0b:77:
                    7d:9c:cf:46:94:a0:03:ad:9a:e0:8d:59:76:4a:0e:
                    86:c1:7b:de:c7:1b:08:09:1d:d1:fa:fb:bf:b6:6c:
                    0e:0b:3d:89:ab:85:06:43:12:52:67:64:95:4e:6e:
                    4f:85:56:96:32:a8:a8:59:41:b7:95:95:eb:28:b9:
                    be:70:04:85:2c:50:89:04:80:05:d3:dc:64:fd:e3:
                    70:a4:c4:77:63:c6:91:c2:c7:b6:eb:7d:6d:dc:b9:
                    52:05:7f:cc:da:78:b2:98:7d:c9:6a:97:42:de:83:
                    a5:47:46:05:53:af:8d:aa:88:a4:73:fe:ad:f3:a9:
                    ab:e3:5c:d3:10:99:0a:5a:d5:a0:43:24:19:ba:13:
                    69:bc:ee:4f:31:34:cf:18:bf:f9:c6:80:48:b8:10:
                    e9:05:c5:eb:29:50:95:5a:17:1a:40:ca:a8:64:28:
                    47:b4:04:2a:5c:fb:61:b6:6a:1e:d4:12:a8:fd:cc:
                    2e:2d:0e:f6:04:53:95:13:25:f8:ea:17:53:3a:5d:
                    ae:eb:3d:87:45:04:78:df:4b:8e:ec:d6:75:59:ee:
                    db:ad:9c:80:e3:50:2b:d5:7b:c6:76:3f:be:38:bc:
                    29:1d
                Exponent: 65537 (0x10001)
        X509v3 extensions:
            X509v3 Basic Constraints: 
                CA:FALSE
            X509v3 Subject Key Identifier: 
                B9:05:60:68:5A:BE:F8:98:FF:8F:51:49:05:46:0F:1F:A1:33:71:AB
            X509v3 Authority Key Identifier: 
                52:A8:93:F4:2D:BE:C3:E9:02:4A:70:C9:D4:E7:EA:D5:A5:70:00:9A
    Signature Algorithm: sha256WithRSAEncryption
    Signature Value:
        3a:62:01:3a:93:7a:e7:4f:38:38:cf:23:6d:01:c0:b6:48:8a:
        34:c8:e1:f4:a4:23:f6:d0:e1:ea:6f:f2:1c:5a:a8:8f:51:99:
        df:2b:11:b5:ac:8e:24:77:da:c4:4b:bc:18:7b:23:54:e4:97:
        88:72:51:ec:73:1e:17:2f:83:1f:99:7d:6a:4f:e7:6f:dc:21:
        e6:86:72:e3:e2:af:50:6e:a7:23:8f:ab:93:2e:6e:93:e1:2a:
        99:38:87:79:d9:2b:64:67:88:be:2c:2c:10:aa:1b:fe:9a:70:
        17:dc:5e:c0:86:56:99:69:53:6c:f5:1b:3c:55:06:b9:58:ca:
        e9:51:84:92:05:85:c6:e5:20:c7:53:df:4f:f8:8a:9b:67:e1:
        ad:d5:7a:ba:1c:f8:f1:f7:74:ba:ca:40:89:39:03:45:cb:09:
        6a:90:a2:b1:28:24:41:83:f8:93:44:4b:c9:d6:b7:f9:0b:2a:
        a8:19:81:58:7b:30:e9:c1:ac:8e:27:65:eb:af:f2:45:7b:a3:
        4c:0f:42:fe:b7:db:f1:7b:da:b6:d6:80:7d:3e:24:20:3f:6a:
        a9:46:1e:52:32:21:96:a3:9a:80:cd:e6:7b:13:cc:94:1d:0c:
        d8:ec:bf:c9:16:d0:9a:98:82:f1:08:24:c7:ed:ba:7f:dd:7f:
        6a:a1:fe:53
-----BEGIN CERTIFICATE-----
MIIDyDCCArCgAwIBAgICEAIwDQYJKoZIhvcNAQELBQAwgYgxCzAJBgNVBAYTAlRO
MRIwEAYDVQQIDAlCZW4tQXJvdXMxEDAOBgNVBAcMB0V6emFocmExDDAKBgNVBAoM
A09yZzENMAsGA1UECwwEVW5pdDEPMA0GA1UEAwwGQ29tbW9uMSUwIwYJKoZIhvcN
AQkBFhZmYXRtYS1jaGFvdWVjaEBsaXZlLmZyMB4XDTIyMTIyMDA2MjQ1MVoXDTIz
MTIyMDA2MjQ1MVowdjELMAkGA1UEBhMCVE4xEjAQBgNVBAgMCUJlbi1Bcm91czEM
MAoGA1UECgwDT3JnMQ0wCwYDVQQLDARVbml0MQ8wDQYDVQQDDAZDb21tb24xJTAj
BgkqhkiG9w0BCQEWFmZhdG1hLWNoYW91ZWNoQGxpdmUuZnIwggEiMA0GCSqGSIb3
DQEBAQUAA4IBDwAwggEKAoIBAQDbSbMDlUl7kKKE3F21ZikjcGkrMUzkMVgDI9IL
d32cz0aUoAOtmuCNWXZKDobBe97HGwgJHdH6+7+2bA4LPYmrhQZDElJnZJVObk+F
VpYyqKhZQbeVlesoub5wBIUsUIkEgAXT3GT943CkxHdjxpHCx7brfW3cuVIFf8za
eLKYfclql0Leg6VHRgVTr42qiKRz/q3zqavjXNMQmQpa1aBDJBm6E2m87k8xNM8Y
v/nGgEi4EOkFxespUJVaFxpAyqhkKEe0BCpc+2G2ah7UEqj9zC4tDvYEU5UTJfjq
F1M6Xa7rPYdFBHjfS47s1nVZ7tutnIDjUCvVe8Z2P744vCkdAgMBAAGjTTBLMAkG
A1UdEwQCMAAwHQYDVR0OBBYEFLkFYGhavviY/49RSQVGDx+hM3GrMB8GA1UdIwQY
MBaAFFKok/QtvsPpAkpwydTn6tWlcACaMA0GCSqGSIb3DQEBCwUAA4IBAQA6YgE6
k3rnTzg4zyNtAcC2SIo0yOH0pCP20OHqb/IcWqiPUZnfKxG1rI4kd9rES7wYeyNU
5JeIclHscx4XL4MfmX1qT+dv3CHmhnLj4q9Qbqcjj6uTLm6T4SqZOId52StkZ4i+
LCwQqhv+mnAX3F7AhlaZaVNs9Rs8VQa5WMrpUYSSBYXG5SDHU99P+IqbZ+Gt1Xq6
HPjx93S6ykCJOQNFywlqkKKxKCRBg/iTREvJ1rf5CyqoGYFYezDpwayOJ2Xrr/JF
e6NMD0L+t9vxe9q21oB9PiQgP2qpRh5SMiGWo5qAzeZ7E8yUHQzY7L/JFtCamILx
CCTH7bp/3X9qof5T
-----END CERTIFICATE-----
