Certificate:
    Data:
        Version: 3 (0x2)
        Serial Number: 4100 (0x1004)
        Signature Algorithm: sha256WithRSAEncryption
        Issuer: C=TN, ST=Ben-Arous, L=Ezzahra, O=Org, OU=Unit, CN=Common/emailAddress=fatma-chaouech@live.fr
        Validity
            Not Before: Jan  2 20:18:34 2023 GMT
            Not After : Jan  2 20:18:34 2024 GMT
        Subject: C=TN, ST=Ben-Arous, O=Org, OU=Unit, CN=localhost/emailAddress=server@chatsec.com
        Subject Public Key Info:
            Public Key Algorithm: rsaEncryption
                Public-Key: (2048 bit)
                Modulus:
                    00:c4:1b:cc:d2:25:59:3e:72:66:a5:56:41:3a:d4:
                    d0:e4:63:7b:2d:de:ad:2f:16:74:81:bd:19:1e:53:
                    b0:f8:3a:8b:8f:55:f1:da:28:d1:8a:d8:01:96:15:
                    2e:4b:7b:71:3e:fb:f0:bf:a6:af:87:73:83:fe:76:
                    9c:df:22:d5:95:b2:92:5c:a3:59:c0:4c:8c:c3:fd:
                    29:c0:bd:b8:a7:c1:1f:62:2d:bc:03:92:85:31:cf:
                    0c:bb:c6:95:a2:fe:69:2b:6e:c8:6c:7d:3a:ab:35:
                    2f:51:98:53:72:93:0c:9c:fc:0b:7a:44:bd:3d:41:
                    ee:bc:95:e6:fa:3f:ae:22:72:5e:a5:eb:89:ca:ce:
                    ed:3f:d3:05:cb:14:43:72:a1:13:27:27:9a:50:6c:
                    39:ad:4a:fd:23:27:10:61:72:b7:34:cb:1c:d2:e1:
                    1e:9b:65:ae:c8:50:7c:d8:54:fe:46:27:02:07:1d:
                    e5:b7:52:d3:48:b4:14:c5:b3:13:a0:2d:5a:a4:b7:
                    c0:e2:ff:2e:af:3d:b3:de:a9:d8:2f:41:fc:43:87:
                    e2:ab:9b:79:e1:b5:08:db:16:e2:0d:e0:b2:42:4b:
                    31:07:b8:b7:cf:40:95:22:1c:ee:cc:93:94:91:d4:
                    97:be:64:44:fd:25:ab:2b:14:25:29:cf:ba:02:55:
                    31:29
                Exponent: 65537 (0x10001)
        X509v3 extensions:
            X509v3 Basic Constraints: 
                CA:FALSE
            X509v3 Subject Key Identifier: 
                9B:FF:CE:8F:2D:37:2B:1E:88:13:F3:E0:CC:73:AB:89:BC:7E:86:97
            X509v3 Authority Key Identifier: 
                52:A8:93:F4:2D:BE:C3:E9:02:4A:70:C9:D4:E7:EA:D5:A5:70:00:9A
    Signature Algorithm: sha256WithRSAEncryption
    Signature Value:
        9c:2d:cf:b9:8e:03:3b:50:e4:af:d4:59:00:13:fc:f1:98:9e:
        21:de:f5:93:2a:2c:d0:b7:d5:86:52:d4:bd:81:cb:a6:69:a8:
        b5:6a:02:d8:da:19:7e:10:01:04:f6:46:ed:0b:6c:3e:32:43:
        61:14:4f:80:f0:03:5a:c4:01:26:23:b8:63:88:ff:b6:ba:6e:
        95:a9:88:23:19:a4:ca:2e:26:d8:c8:fb:3c:39:6d:93:ee:c7:
        b7:4a:2d:d0:50:e3:a8:f3:a1:9f:b3:97:18:d1:f3:fd:b3:24:
        c8:59:5d:ec:cb:8c:e0:2b:a5:94:8f:68:02:95:70:4e:a2:6e:
        a4:7b:ac:a5:87:3c:f1:3a:2a:49:8c:42:88:e2:df:17:89:70:
        13:f9:5f:a4:4a:38:c0:09:62:a8:9c:ed:ac:f9:d5:3f:f1:7c:
        f3:4e:e1:73:9a:14:37:12:3d:1f:a7:0d:33:8d:d8:bb:f6:01:
        c0:76:38:b9:05:12:00:c9:39:5a:6c:e8:ec:47:09:72:75:86:
        6b:ab:44:cb:1b:2f:42:a0:a9:dd:37:3d:83:09:60:cc:80:6e:
        6d:2f:82:9b:45:2a:b8:b6:4e:d5:0b:85:78:7d:e5:a2:8b:3c:
        82:9d:b9:66:88:d7:3f:92:c8:8e:0f:34:a3:8b:e5:fb:73:3f:
        24:15:49:c9
-----BEGIN CERTIFICATE-----
MIIDxzCCAq+gAwIBAgICEAQwDQYJKoZIhvcNAQELBQAwgYgxCzAJBgNVBAYTAlRO
MRIwEAYDVQQIDAlCZW4tQXJvdXMxEDAOBgNVBAcMB0V6emFocmExDDAKBgNVBAoM
A09yZzENMAsGA1UECwwEVW5pdDEPMA0GA1UEAwwGQ29tbW9uMSUwIwYJKoZIhvcN
AQkBFhZmYXRtYS1jaGFvdWVjaEBsaXZlLmZyMB4XDTIzMDEwMjIwMTgzNFoXDTI0
MDEwMjIwMTgzNFowdTELMAkGA1UEBhMCVE4xEjAQBgNVBAgMCUJlbi1Bcm91czEM
MAoGA1UECgwDT3JnMQ0wCwYDVQQLDARVbml0MRIwEAYDVQQDDAlsb2NhbGhvc3Qx
ITAfBgkqhkiG9w0BCQEWEnNlcnZlckBjaGF0c2VjLmNvbTCCASIwDQYJKoZIhvcN
AQEBBQADggEPADCCAQoCggEBAMQbzNIlWT5yZqVWQTrU0ORjey3erS8WdIG9GR5T
sPg6i49V8doo0YrYAZYVLkt7cT778L+mr4dzg/52nN8i1ZWyklyjWcBMjMP9KcC9
uKfBH2ItvAOShTHPDLvGlaL+aStuyGx9Oqs1L1GYU3KTDJz8C3pEvT1B7ryV5vo/
riJyXqXricrO7T/TBcsUQ3KhEycnmlBsOa1K/SMnEGFytzTLHNLhHptlrshQfNhU
/kYnAgcd5bdS00i0FMWzE6AtWqS3wOL/Lq89s96p2C9B/EOH4qubeeG1CNsW4g3g
skJLMQe4t89AlSIc7syTlJHUl75kRP0lqysUJSnPugJVMSkCAwEAAaNNMEswCQYD
VR0TBAIwADAdBgNVHQ4EFgQUm//Ojy03Kx6IE/PgzHOribx+hpcwHwYDVR0jBBgw
FoAUUqiT9C2+w+kCSnDJ1Ofq1aVwAJowDQYJKoZIhvcNAQELBQADggEBAJwtz7mO
AztQ5K/UWQAT/PGYniHe9ZMqLNC31YZS1L2By6ZpqLVqAtjaGX4QAQT2Ru0LbD4y
Q2EUT4DwA1rEASYjuGOI/7a6bpWpiCMZpMouJtjI+zw5bZPux7dKLdBQ46jzoZ+z
lxjR8/2zJMhZXezLjOArpZSPaAKVcE6ibqR7rKWHPPE6KkmMQoji3xeJcBP5X6RK
OMAJYqic7az51T/xfPNO4XOaFDcSPR+nDTON2Lv2AcB2OLkFEgDJOVps6OxHCXJ1
hmurRMsbL0Kgqd03PYMJYMyAbm0vgptFKri2TtULhXh95aKLPIKduWaI1z+SyI4P
NKOL5ftzPyQVSck=
-----END CERTIFICATE-----
