Certificate:
    Data:
        Version: 3 (0x2)
        Serial Number: 4101 (0x1005)
        Signature Algorithm: sha256WithRSAEncryption
        Issuer: C=TN, ST=Ben-Arous, L=Ezzahra, O=Org, OU=Unit, CN=Common/emailAddress=fatma-chaouech@live.fr
        Validity
            Not Before: Jan  2 20:19:58 2023 GMT
            Not After : Jan  2 20:19:58 2024 GMT
        Subject: C=TN, ST=Ben-Arous, O=Org, OU=Unit, CN=localhost/emailAddress=client@chatsec.com
        Subject Public Key Info:
            Public Key Algorithm: rsaEncryption
                Public-Key: (2048 bit)
                Modulus:
                    00:d2:85:91:60:72:e0:53:b1:41:62:be:9b:a0:e9:
                    f7:ca:d9:1c:cb:65:df:7b:39:d8:ac:bf:9e:c0:42:
                    ce:2f:fd:cd:67:92:69:71:e8:59:e1:90:3b:1a:8c:
                    68:ec:89:fd:3e:80:7a:0d:ad:08:e8:e4:58:a6:17:
                    f6:9d:bc:1e:78:8b:a9:fe:05:76:d0:95:f9:b9:23:
                    99:b6:98:97:78:54:6c:31:1f:c5:38:99:44:34:42:
                    e9:c5:c0:f0:54:fa:16:ba:44:e7:f9:b4:a7:54:46:
                    a7:1b:36:ee:99:73:ee:46:d8:15:e6:f5:21:73:bd:
                    7b:67:8d:e9:5f:f4:1d:a8:85:e8:80:96:1b:92:02:
                    c7:3b:59:b9:60:d5:8e:f4:ec:17:af:de:da:44:de:
                    10:8e:8a:44:53:d3:4d:da:39:0b:ae:e8:33:93:7e:
                    8e:18:4d:7f:2c:38:67:a9:af:6e:1e:67:93:ee:eb:
                    bb:cc:77:eb:70:6c:9c:4a:ed:69:7b:43:02:eb:3f:
                    fb:bd:df:b1:0d:f2:62:19:7b:f5:90:f2:18:ac:0d:
                    49:aa:66:fc:b1:4e:80:be:1f:17:1e:0a:55:2d:db:
                    ff:ba:76:af:20:c9:19:bc:4e:54:c1:83:c5:9d:e5:
                    99:7e:a0:63:67:62:04:66:e2:25:45:d1:8a:db:0f:
                    4a:7d
                Exponent: 65537 (0x10001)
        X509v3 extensions:
            X509v3 Basic Constraints: 
                CA:FALSE
            X509v3 Subject Key Identifier: 
                A8:12:05:5A:C0:02:CE:5A:2F:37:A3:4F:5D:2A:52:96:A0:FE:C7:C9
            X509v3 Authority Key Identifier: 
                52:A8:93:F4:2D:BE:C3:E9:02:4A:70:C9:D4:E7:EA:D5:A5:70:00:9A
    Signature Algorithm: sha256WithRSAEncryption
    Signature Value:
        a3:2c:9f:11:79:8a:07:0d:30:bc:04:3e:8c:5a:b3:03:5d:46:
        0f:b7:65:27:86:04:2b:6a:81:f3:14:e9:ec:80:59:af:eb:64:
        77:67:29:69:f9:b7:37:e7:ac:ee:69:4f:dc:cb:68:20:65:63:
        82:e2:8a:0a:42:13:46:6f:32:a6:2a:1a:ab:07:fc:6b:ec:b0:
        57:a3:1e:23:4b:9d:63:c4:ef:eb:53:f3:ff:3b:a8:2b:0f:e9:
        c5:17:d9:49:b4:e1:aa:48:01:9a:06:e4:51:7b:fe:27:21:86:
        cc:72:e2:0e:d8:ae:9e:0b:46:ab:6c:c0:30:be:28:24:5b:5e:
        db:0d:61:a9:c0:47:b0:e2:dd:e1:b2:38:58:9a:84:91:25:29:
        fd:f1:60:76:1e:75:3e:8e:cf:24:bc:da:da:4e:af:62:90:0d:
        f2:81:2c:e0:55:4b:8a:04:e8:89:ae:3e:0a:53:f3:66:ca:a7:
        7e:e1:ec:d7:54:eb:42:a6:e1:7d:f7:2e:1c:d1:c3:fe:7f:94:
        bc:dc:39:7f:95:84:37:52:af:49:9c:02:44:9b:b6:d7:b6:bf:
        b6:8f:d9:46:83:1b:6e:35:29:f9:a1:d9:28:2e:17:d1:fb:5f:
        74:60:5a:fe:1f:d8:34:e0:be:e8:f1:04:a2:58:5b:0e:97:51:
        4a:f4:01:38
-----BEGIN CERTIFICATE-----
MIIDxzCCAq+gAwIBAgICEAUwDQYJKoZIhvcNAQELBQAwgYgxCzAJBgNVBAYTAlRO
MRIwEAYDVQQIDAlCZW4tQXJvdXMxEDAOBgNVBAcMB0V6emFocmExDDAKBgNVBAoM
A09yZzENMAsGA1UECwwEVW5pdDEPMA0GA1UEAwwGQ29tbW9uMSUwIwYJKoZIhvcN
AQkBFhZmYXRtYS1jaGFvdWVjaEBsaXZlLmZyMB4XDTIzMDEwMjIwMTk1OFoXDTI0
MDEwMjIwMTk1OFowdTELMAkGA1UEBhMCVE4xEjAQBgNVBAgMCUJlbi1Bcm91czEM
MAoGA1UECgwDT3JnMQ0wCwYDVQQLDARVbml0MRIwEAYDVQQDDAlsb2NhbGhvc3Qx
ITAfBgkqhkiG9w0BCQEWEmNsaWVudEBjaGF0c2VjLmNvbTCCASIwDQYJKoZIhvcN
AQEBBQADggEPADCCAQoCggEBANKFkWBy4FOxQWK+m6Dp98rZHMtl33s52Ky/nsBC
zi/9zWeSaXHoWeGQOxqMaOyJ/T6Aeg2tCOjkWKYX9p28HniLqf4FdtCV+bkjmbaY
l3hUbDEfxTiZRDRC6cXA8FT6FrpE5/m0p1RGpxs27plz7kbYFeb1IXO9e2eN6V/0
HaiF6ICWG5ICxztZuWDVjvTsF6/e2kTeEI6KRFPTTdo5C67oM5N+jhhNfyw4Z6mv
bh5nk+7ru8x363BsnErtaXtDAus/+73fsQ3yYhl79ZDyGKwNSapm/LFOgL4fFx4K
VS3b/7p2ryDJGbxOVMGDxZ3lmX6gY2diBGbiJUXRitsPSn0CAwEAAaNNMEswCQYD
VR0TBAIwADAdBgNVHQ4EFgQUqBIFWsACzlovN6NPXSpSlqD+x8kwHwYDVR0jBBgw
FoAUUqiT9C2+w+kCSnDJ1Ofq1aVwAJowDQYJKoZIhvcNAQELBQADggEBAKMsnxF5
igcNMLwEPoxaswNdRg+3ZSeGBCtqgfMU6eyAWa/rZHdnKWn5tzfnrO5pT9zLaCBl
Y4LiigpCE0ZvMqYqGqsH/GvssFejHiNLnWPE7+tT8/87qCsP6cUX2Um04apIAZoG
5FF7/ichhsxy4g7Yrp4LRqtswDC+KCRbXtsNYanAR7Di3eGyOFiahJElKf3xYHYe
dT6OzyS82tpOr2KQDfKBLOBVS4oE6ImuPgpT82bKp37h7NdU60Km4X33LhzRw/5/
lLzcOX+VhDdSr0mcAkSbtte2v7aP2UaDG241Kfmh2SguF9H7X3RgWv4f2DTgvujx
BKJYWw6XUUr0ATg=
-----END CERTIFICATE-----
